; Function Attrs: mustprogress uwtable
define void @_ZN6casadi2MXC2ERKSt6vectorIdSaIdEE(ptr noundef nonnull align 8 dereferenceable(8) %0, ptr noundef nonnull align 8 dereferenceable(24) %1) unnamed_addr #3 align 2 personality ptr @__gxx_personality_v0 {
  %3 = alloca %"class.casadi::Matrix", align 8
  tail call void @_ZN6casadi12SharedObjectC2Ev(ptr noundef nonnull align 8 dereferenceable(8) %0)
  invoke void @_ZN6casadi6MatrixIdEC1ERKSt6vectorIdSaIdEE(ptr noundef nonnull align 8 dereferenceable(40) %3, ptr noundef nonnull align 8 dereferenceable(24) %1)
          to label %4 unwind label %12

4:                                                ; preds = %2
  %5 = invoke noundef ptr @_ZN6casadi10ConstantMX6createERKNS_6MatrixIdEE(ptr noundef nonnull align 8 dereferenceable(40) %3)
          to label %6 unwind label %14

6:                                                ; preds = %4
  invoke void @_ZN6casadi12SharedObject3ownEPNS_20SharedObjectInternalE(ptr noundef nonnull align 8 dereferenceable(8) %0, ptr noundef %5)
          to label %7 unwind label %14

7:                                                ; preds = %6
  %8 = getelementptr inbounds i8, ptr %3, i64 16
  %9 = load ptr, ptr %8, align 8
  %.not.i.i.i.i = icmp eq ptr %9, null
  br i1 %.not.i.i.i.i, label %_ZN6casadi6MatrixIdED2Ev.exit, label %10

10:                                               ; preds = %7
  call void @_ZdlPv(ptr noundef nonnull %9) #30
  br label %_ZN6casadi6MatrixIdED2Ev.exit

_ZN6casadi6MatrixIdED2Ev.exit:                    ; preds = %7, %10
  %11 = getelementptr inbounds i8, ptr %3, i64 8
  call void @_ZN6casadi12SharedObjectD2Ev(ptr noundef nonnull align 8 dereferenceable(8) %11) #27
  ret void

12:                                               ; preds = %2
  %13 = landingpad { ptr, i32 }
          cleanup
  br label %16

14:                                               ; preds = %6, %4
  %15 = landingpad { ptr, i32 }
          cleanup
  call void @_ZN6casadi6MatrixIdED2Ev(ptr noundef nonnull align 8 dereferenceable(40) %3) #27
  br label %16

16:                                               ; preds = %14, %12
  %.pn = phi { ptr, i32 } [ %15, %14 ], [ %13, %12 ]
  call void @_ZN6casadi12SharedObjectD2Ev(ptr noundef nonnull align 8 dereferenceable(8) %0) #27
  resume { ptr, i32 } %.pn
}